; Function Attrs: mustprogress uwtable
define void @_ZN7rocksdb12experimental19SuggestCompactRangeEPNS_2DBEPNS_18ColumnFamilyHandleEPKNS_5SliceES7_(ptr dead_on_unwind noalias writable sret(%"class.rocksdb::Status") align 8 %0, ptr noundef %1, ptr noundef %2, ptr noundef %3, ptr noundef %4) local_unnamed_addr #4 {
  %6 = alloca %"class.rocksdb::Slice", align 8
  %7 = alloca %"class.rocksdb::Slice", align 8
  %8 = icmp eq ptr %1, null
  br i1 %8, label %9, label %12

9:                                                ; preds = %5
  call void @llvm.lifetime.start.p0(i64 16, ptr nonnull %6) #34
  store ptr @.str.40, ptr %6, align 8, !tbaa !18
  %10 = getelementptr inbounds nuw i8, ptr %6, i64 8
  store i64 11, ptr %10, align 8, !tbaa !20
  call void @llvm.lifetime.start.p0(i64 16, ptr nonnull %7) #34
  store ptr @.str, ptr %7, align 8, !tbaa !18
  %11 = getelementptr inbounds nuw i8, ptr %7, i64 8
  store i64 0, ptr %11, align 8, !tbaa !20
  call void @_ZN7rocksdb6StatusC2ENS0_4CodeENS0_7SubCodeERKNS_5SliceES5_NS0_8SeverityE(ptr noundef nonnull align 8 dereferenceable(16) %0, i8 noundef zeroext 4, i8 noundef zeroext 0, ptr noundef nonnull align 8 dereferenceable(16) %6, ptr noundef nonnull align 8 dereferenceable(16) %7, i8 noundef zeroext 0)
  call void @llvm.lifetime.end.p0(i64 16, ptr nonnull %7) #34
  call void @llvm.lifetime.end.p0(i64 16, ptr nonnull %6) #34
  br label %16

12:                                               ; preds = %5
  %13 = load ptr, ptr %1, align 8, !tbaa !21
  %14 = getelementptr inbounds nuw i8, ptr %13, i64 1120
  %15 = load ptr, ptr %14, align 8
  tail call void %15(ptr dead_on_unwind writable sret(%"class.rocksdb::Status") align 8 %0, ptr noundef nonnull align 8 dereferenceable(8) %1, ptr noundef %2, ptr noundef %3, ptr noundef %4)
  br label %16

16:                                               ; preds = %12, %9
  ret void
}